; Function Attrs: mustprogress uwtable
define dso_local void @_ZNK14StatementBreak6OutputERSoP7FactMgri(ptr nocapture noundef nonnull readonly align 8 dereferenceable(48) %0, ptr noundef nonnull align 8 dereferenceable(8) %1, ptr nocapture readnone %2, i32 noundef %3) unnamed_addr #3 align 2 {
  tail call void @_Z10output_tabRSoi(ptr noundef nonnull align 8 dereferenceable(8) %1, i32 noundef %3)
  %5 = tail call noundef nonnull align 8 dereferenceable(8) ptr @_ZStlsISt11char_traitsIcEERSt13basic_ostreamIcT_ES5_PKc(ptr noundef nonnull align 8 dereferenceable(8) %1, ptr noundef nonnull @.str)
  %6 = getelementptr inbounds i8, ptr %0, i64 32
  %7 = load ptr, ptr %6, align 8
  %8 = load ptr, ptr %7, align 8
  %9 = getelementptr inbounds i8, ptr %8, i64 144
  %10 = load ptr, ptr %9, align 8
  tail call void %10(ptr noundef nonnull align 8 dereferenceable(24) %7, ptr noundef nonnull align 8 dereferenceable(8) %1)
  %11 = tail call noundef nonnull align 8 dereferenceable(8) ptr @_ZStlsISt11char_traitsIcEERSt13basic_ostreamIcT_ES5_PKc(ptr noundef nonnull align 8 dereferenceable(8) %1, ptr noundef nonnull @.str.1)
  tail call void @_Z8outputlnRSo(ptr noundef nonnull align 8 dereferenceable(8) %1)
  %12 = add nsw i32 %3, 1
  tail call void @_Z10output_tabRSoi(ptr noundef nonnull align 8 dereferenceable(8) %1, i32 noundef %12)
  %13 = tail call noundef nonnull align 8 dereferenceable(8) ptr @_ZStlsISt11char_traitsIcEERSt13basic_ostreamIcT_ES5_PKc(ptr noundef nonnull align 8 dereferenceable(8) %1, ptr noundef nonnull @.str.2)
  tail call void @_Z8outputlnRSo(ptr noundef nonnull align 8 dereferenceable(8) %1)
  ret void
}